target datalayout = "e-m:e-p270:32:32-p271:32:32-p272:64:64-i64:64-i128:128-f80:128-n8:16:32:64-S128"
target triple = "x86_64-pc-linux-gnu"

%"struct.faiss::IndexBinaryFlat" = type <{ %"struct.faiss::IndexBinary", %"class.std::vector", i8, [7 x i8], i64, i32, [4 x i8] }>
%"struct.faiss::IndexBinary" = type { ptr, i32, i32, i64, i8, i8, i32 }
%"class.std::vector" = type { %"struct.std::_Vector_base" }
%"struct.std::_Vector_base" = type { %"struct.std::_Vector_base<unsigned char, std::allocator<unsigned char>>::_Vector_impl" }
%"struct.std::_Vector_base<unsigned char, std::allocator<unsigned char>>::_Vector_impl" = type { %"struct.std::_Vector_base<unsigned char, std::allocator<unsigned char>>::_Vector_impl_data" }
%"struct.std::_Vector_base<unsigned char, std::allocator<unsigned char>>::_Vector_impl_data" = type { ptr, ptr, ptr }
%"class.std::__cxx11::basic_string" = type { %"struct.std::__cxx11::basic_string<char>::_Alloc_hider", i64, %union.anon }
%"struct.std::__cxx11::basic_string<char>::_Alloc_hider" = type { ptr }
%union.anon = type { i64, [8 x i8] }
%"struct.faiss::HeapArray" = type { i64, i64, ptr, ptr }

@.str.1 = private unnamed_addr constant [63 x i8] c"Error: '%s' failed: search params not supported for this index\00", align 1
@.str.2 = private unnamed_addr constant [8 x i8] c"!params\00", align 1
@__PRETTY_FUNCTION__._ZNK5faiss15IndexBinaryFlat6searchElPKhlPiPlPKNS_16SearchParametersE = private unnamed_addr constant [127 x i8] c"virtual void faiss::IndexBinaryFlat::search(idx_t, const uint8_t *, idx_t, int32_t *, idx_t *, const SearchParameters *) const\00", align 1
@.str.3 = private unnamed_addr constant [115 x i8] c"generated/home/dtcxzyw/WorkSpace/Projects/compilers/llvm-opt-benchmark/bench/faiss/faiss/faiss/IndexBinaryFlat.cpp\00", align 1
@_ZTIN5faiss14FaissExceptionE = external constant ptr
@.str.4 = private unnamed_addr constant [19 x i8] c"Error: '%s' failed\00", align 1
@.str.5 = private unnamed_addr constant [6 x i8] c"k > 0\00", align 1

; Function Attrs: mustprogress nounwind uwtable
define linkonce_odr noundef ptr @_ZNKSt6vectorIhSaIhEE11_M_data_ptrIhEEPT_S4_(ptr noundef nonnull align 8 dereferenceable(24) %0, ptr noundef %1) #0 comdat align 2 {
  %3 = alloca ptr, align 8
  %4 = alloca ptr, align 8
  store ptr %0, ptr %3, align 8
  store ptr %1, ptr %4, align 8
  %5 = load ptr, ptr %4, align 8
  ret ptr %5
}

; Function Attrs: mustprogress nounwind uwtable
define linkonce_odr noundef ptr @_ZNKSt6vectorIhSaIhEE4dataEv(ptr noundef nonnull align 8 dereferenceable(24) %0) #0 comdat align 2 {
  %2 = alloca ptr, align 8
  store ptr %0, ptr %2, align 8
  %3 = load ptr, ptr %2, align 8
  %4 = getelementptr inbounds %"struct.std::_Vector_base", ptr %3, i32 0, i32 0
  %5 = getelementptr inbounds %"struct.std::_Vector_base<unsigned char, std::allocator<unsigned char>>::_Vector_impl_data", ptr %4, i32 0, i32 0
  %6 = load ptr, ptr %5, align 8
  %7 = call noundef ptr @_ZNKSt6vectorIhSaIhEE11_M_data_ptrIhEEPT_S4_(ptr noundef nonnull align 8 dereferenceable(24) %3, ptr noundef %6) #11
  ret ptr %7
}

; Function Attrs: mustprogress uwtable
define void @_ZNK5faiss15IndexBinaryFlat6searchElPKhlPiPlPKNS_16SearchParametersE(ptr noundef nonnull align 8 dereferenceable(76) %0, i64 noundef %1, ptr noundef %2, i64 noundef %3, ptr noundef %4, ptr noundef %5, ptr noundef %6) unnamed_addr #2 align 2 personality ptr @__gxx_personality_v0 {
  %8 = alloca ptr, align 8
  %9 = alloca i64, align 8
  %10 = alloca ptr, align 8
  %11 = alloca i64, align 8
  %12 = alloca ptr, align 8
  %13 = alloca ptr, align 8
  %14 = alloca ptr, align 8
  %15 = alloca %"class.std::__cxx11::basic_string", align 8
  %16 = alloca i32, align 4
  %17 = alloca ptr, align 8
  %18 = alloca i32, align 4
  %19 = alloca %"class.std::__cxx11::basic_string", align 8
  %20 = alloca i32, align 4
  %21 = alloca i64, align 8
  %22 = alloca i64, align 8
  %23 = alloca i64, align 8
  %24 = alloca %"struct.faiss::HeapArray", align 8
  store ptr %0, ptr %8, align 8
  store i64 %1, ptr %9, align 8
  store ptr %2, ptr %10, align 8
  store i64 %3, ptr %11, align 8
  store ptr %4, ptr %12, align 8
  store ptr %5, ptr %13, align 8
  store ptr %6, ptr %14, align 8
  %25 = load ptr, ptr %8, align 8
  br label %26

26:                                               ; preds = %7
  %27 = load ptr, ptr %14, align 8
  %28 = icmp ne ptr %27, null
  br i1 %28, label %29, label %52

29:                                               ; preds = %26
  br label %30

30:                                               ; preds = %29
  call void @_ZNSt7__cxx1112basic_stringIcSt11char_traitsIcESaIcEEC1Ev(ptr noundef nonnull align 8 dereferenceable(32) %15) #11
  %31 = call i32 (ptr, i64, ptr, ...) @snprintf(ptr noundef null, i64 noundef 0, ptr noundef @.str.1, ptr noundef @.str.2) #11
  store i32 %31, ptr %16, align 4
  %32 = load i32, ptr %16, align 4
  %33 = add nsw i32 %32, 1
  %34 = sext i32 %33 to i64
  invoke void @_ZNSt7__cxx1112basic_stringIcSt11char_traitsIcESaIcEE6resizeEm(ptr noundef nonnull align 8 dereferenceable(32) %15, i64 noundef %34)
          to label %35 unwind label %42

35:                                               ; preds = %30
  %36 = invoke noundef nonnull align 1 dereferenceable(1) ptr @_ZNSt7__cxx1112basic_stringIcSt11char_traitsIcESaIcEEixEm(ptr noundef nonnull align 8 dereferenceable(32) %15, i64 noundef 0)
          to label %37 unwind label %42

37:                                               ; preds = %35
  %38 = call noundef i64 @_ZNKSt7__cxx1112basic_stringIcSt11char_traitsIcESaIcEE4sizeEv(ptr noundef nonnull align 8 dereferenceable(32) %15) #11
  %39 = call i32 (ptr, i64, ptr, ...) @snprintf(ptr noundef %36, i64 noundef %38, ptr noundef @.str.1, ptr noundef @.str.2) #11
  %40 = call ptr @__cxa_allocate_exception(i64 40) #11
  invoke void @_ZN5faiss14FaissExceptionC1ERKNSt7__cxx1112basic_stringIcSt11char_traitsIcESaIcEEEPKcSA_i(ptr noundef nonnull align 8 dereferenceable(40) %40, ptr noundef nonnull align 8 dereferenceable(32) %15, ptr noundef @__PRETTY_FUNCTION__._ZNK5faiss15IndexBinaryFlat6searchElPKhlPiPlPKNS_16SearchParametersE, ptr noundef @.str.3, i32 noundef 42)
          to label %41 unwind label %46

41:                                               ; preds = %37
  invoke void @__cxa_throw(ptr %40, ptr @_ZTIN5faiss14FaissExceptionE, ptr @_ZN5faiss14FaissExceptionD2Ev) #13
          to label %174 unwind label %42

42:                                               ; preds = %41, %35, %30
  %43 = landingpad { ptr, i32 }
          cleanup
  %44 = extractvalue { ptr, i32 } %43, 0
  store ptr %44, ptr %17, align 8
  %45 = extractvalue { ptr, i32 } %43, 1
  store i32 %45, ptr %18, align 4
  br label %50

46:                                               ; preds = %37
  %47 = landingpad { ptr, i32 }
          cleanup
  %48 = extractvalue { ptr, i32 } %47, 0
  store ptr %48, ptr %17, align 8
  %49 = extractvalue { ptr, i32 } %47, 1
  store i32 %49, ptr %18, align 4
  call void @__cxa_free_exception(ptr %40) #11
  br label %50

50:                                               ; preds = %46, %42
  call void @_ZNSt7__cxx1112basic_stringIcSt11char_traitsIcESaIcEED1Ev(ptr noundef nonnull align 8 dereferenceable(32) %15) #11
  br label %169

51:                                               ; No predecessors!
  br label %52

52:                                               ; preds = %51, %26
  br label %53

53:                                               ; preds = %52
  br label %54

54:                                               ; preds = %53
  %55 = load i64, ptr %11, align 8
  %56 = icmp sgt i64 %55, 0
  br i1 %56, label %80, label %57

57:                                               ; preds = %54
  br label %58

58:                                               ; preds = %57
  call void @_ZNSt7__cxx1112basic_stringIcSt11char_traitsIcESaIcEEC1Ev(ptr noundef nonnull align 8 dereferenceable(32) %19) #11
  %59 = call i32 (ptr, i64, ptr, ...) @snprintf(ptr noundef null, i64 noundef 0, ptr noundef @.str.4, ptr noundef @.str.5) #11
  store i32 %59, ptr %20, align 4
  %60 = load i32, ptr %20, align 4
  %61 = add nsw i32 %60, 1
  %62 = sext i32 %61 to i64
  invoke void @_ZNSt7__cxx1112basic_stringIcSt11char_traitsIcESaIcEE6resizeEm(ptr noundef nonnull align 8 dereferenceable(32) %19, i64 noundef %62)
          to label %63 unwind label %70

63:                                               ; preds = %58
  %64 = invoke noundef nonnull align 1 dereferenceable(1) ptr @_ZNSt7__cxx1112basic_stringIcSt11char_traitsIcESaIcEEixEm(ptr noundef nonnull align 8 dereferenceable(32) %19, i64 noundef 0)
          to label %65 unwind label %70

65:                                               ; preds = %63
  %66 = call noundef i64 @_ZNKSt7__cxx1112basic_stringIcSt11char_traitsIcESaIcEE4sizeEv(ptr noundef nonnull align 8 dereferenceable(32) %19) #11
  %67 = call i32 (ptr, i64, ptr, ...) @snprintf(ptr noundef %64, i64 noundef %66, ptr noundef @.str.4, ptr noundef @.str.5) #11
  %68 = call ptr @__cxa_allocate_exception(i64 40) #11
  invoke void @_ZN5faiss14FaissExceptionC1ERKNSt7__cxx1112basic_stringIcSt11char_traitsIcESaIcEEEPKcSA_i(ptr noundef nonnull align 8 dereferenceable(40) %68, ptr noundef nonnull align 8 dereferenceable(32) %19, ptr noundef @__PRETTY_FUNCTION__._ZNK5faiss15IndexBinaryFlat6searchElPKhlPiPlPKNS_16SearchParametersE, ptr noundef @.str.3, i32 noundef 43)
          to label %69 unwind label %74

69:                                               ; preds = %65
  invoke void @__cxa_throw(ptr %68, ptr @_ZTIN5faiss14FaissExceptionE, ptr @_ZN5faiss14FaissExceptionD2Ev) #13
          to label %174 unwind label %70

70:                                               ; preds = %69, %63, %58
  %71 = landingpad { ptr, i32 }
          cleanup
  %72 = extractvalue { ptr, i32 } %71, 0
  store ptr %72, ptr %17, align 8
  %73 = extractvalue { ptr, i32 } %71, 1
  store i32 %73, ptr %18, align 4
  br label %78

74:                                               ; preds = %65
  %75 = landingpad { ptr, i32 }
          cleanup
  %76 = extractvalue { ptr, i32 } %75, 0
  store ptr %76, ptr %17, align 8
  %77 = extractvalue { ptr, i32 } %75, 1
  store i32 %77, ptr %18, align 4
  call void @__cxa_free_exception(ptr %68) #11
  br label %78

78:                                               ; preds = %74, %70
  call void @_ZNSt7__cxx1112basic_stringIcSt11char_traitsIcESaIcEED1Ev(ptr noundef nonnull align 8 dereferenceable(32) %19) #11
  br label %169

79:                                               ; No predecessors!
  br label %80

80:                                               ; preds = %79, %54
  br label %81

81:                                               ; preds = %80
  %82 = getelementptr inbounds %"struct.faiss::IndexBinaryFlat", ptr %25, i32 0, i32 4
  %83 = load i64, ptr %82, align 8
  store i64 %83, ptr %21, align 8
  store i64 0, ptr %22, align 8
  br label %84

84:                                               ; preds = %164, %81
  %85 = load i64, ptr %22, align 8
  %86 = load i64, ptr %9, align 8
  %87 = icmp slt i64 %85, %86
  br i1 %87, label %88, label %168

88:                                               ; preds = %84
  %89 = load i64, ptr %21, align 8
  store i64 %89, ptr %23, align 8
  %90 = load i64, ptr %22, align 8
  %91 = load i64, ptr %21, align 8
  %92 = add nsw i64 %90, %91
  %93 = load i64, ptr %9, align 8
  %94 = icmp sgt i64 %92, %93
  br i1 %94, label %95, label %99

95:                                               ; preds = %88
  %96 = load i64, ptr %9, align 8
  %97 = load i64, ptr %22, align 8
  %98 = sub nsw i64 %96, %97
  store i64 %98, ptr %23, align 8
  br label %99

99:                                               ; preds = %95, %88
  %100 = getelementptr inbounds %"struct.faiss::IndexBinaryFlat", ptr %25, i32 0, i32 2
  %101 = load i8, ptr %100, align 8
  %102 = trunc i8 %101 to i1
  br i1 %102, label %103, label %136

103:                                              ; preds = %99
  %104 = getelementptr inbounds %"struct.faiss::HeapArray", ptr %24, i32 0, i32 0
  %105 = load i64, ptr %23, align 8
  store i64 %105, ptr %104, align 8
  %106 = getelementptr inbounds %"struct.faiss::HeapArray", ptr %24, i32 0, i32 1
  %107 = load i64, ptr %11, align 8
  store i64 %107, ptr %106, align 8
  %108 = getelementptr inbounds %"struct.faiss::HeapArray", ptr %24, i32 0, i32 2
  %109 = load ptr, ptr %13, align 8
  %110 = load i64, ptr %22, align 8
  %111 = load i64, ptr %11, align 8
  %112 = mul nsw i64 %110, %111
  %113 = getelementptr inbounds i64, ptr %109, i64 %112
  store ptr %113, ptr %108, align 8
  %114 = getelementptr inbounds %"struct.faiss::HeapArray", ptr %24, i32 0, i32 3
  %115 = load ptr, ptr %12, align 8
  %116 = load i64, ptr %22, align 8
  %117 = load i64, ptr %11, align 8
  %118 = mul nsw i64 %116, %117
  %119 = getelementptr inbounds i32, ptr %115, i64 %118
  store ptr %119, ptr %114, align 8
  %120 = load ptr, ptr %10, align 8
  %121 = load i64, ptr %22, align 8
  %122 = getelementptr inbounds %"struct.faiss::IndexBinary", ptr %25, i32 0, i32 2
  %123 = load i32, ptr %122, align 4
  %124 = sext i32 %123 to i64
  %125 = mul nsw i64 %121, %124
  %126 = getelementptr inbounds i8, ptr %120, i64 %125
  %127 = getelementptr inbounds %"struct.faiss::IndexBinaryFlat", ptr %25, i32 0, i32 1
  %128 = call noundef ptr @_ZNKSt6vectorIhSaIhEE4dataEv(ptr noundef nonnull align 8 dereferenceable(24) %127) #11
  %129 = getelementptr inbounds %"struct.faiss::IndexBinary", ptr %25, i32 0, i32 3
  %130 = load i64, ptr %129, align 8
  %131 = getelementptr inbounds %"struct.faiss::IndexBinary", ptr %25, i32 0, i32 2
  %132 = load i32, ptr %131, align 4
  %133 = sext i32 %132 to i64
  %134 = getelementptr inbounds %"struct.faiss::IndexBinaryFlat", ptr %25, i32 0, i32 5
  %135 = load i32, ptr %134, align 8
  call void @_ZN5faiss15hammings_knn_hcEPNS_9HeapArrayINS_4CMaxIilEEEEPKhS6_mmi17ApproxTopK_mode_t(ptr noundef %24, ptr noundef %126, ptr noundef %128, i64 noundef %130, i64 noundef %133, i32 noundef 1, i32 noundef %135)
  br label %163

136:                                              ; preds = %99
  %137 = load ptr, ptr %10, align 8
  %138 = load i64, ptr %22, align 8
  %139 = getelementptr inbounds %"struct.faiss::IndexBinary", ptr %25, i32 0, i32 2
  %140 = load i32, ptr %139, align 4
  %141 = sext i32 %140 to i64
  %142 = mul nsw i64 %138, %141
  %143 = getelementptr inbounds i8, ptr %137, i64 %142
  %144 = getelementptr inbounds %"struct.faiss::IndexBinaryFlat", ptr %25, i32 0, i32 1
  %145 = call noundef ptr @_ZNKSt6vectorIhSaIhEE4dataEv(ptr noundef nonnull align 8 dereferenceable(24) %144) #11
  %146 = load i64, ptr %23, align 8
  %147 = getelementptr inbounds %"struct.faiss::IndexBinary", ptr %25, i32 0, i32 3
  %148 = load i64, ptr %147, align 8
  %149 = load i64, ptr %11, align 8
  %150 = getelementptr inbounds %"struct.faiss::IndexBinary", ptr %25, i32 0, i32 2
  %151 = load i32, ptr %150, align 4
  %152 = sext i32 %151 to i64
  %153 = load ptr, ptr %12, align 8
  %154 = load i64, ptr %22, align 8
  %155 = load i64, ptr %11, align 8
  %156 = mul nsw i64 %154, %155
  %157 = getelementptr inbounds i32, ptr %153, i64 %156
  %158 = load ptr, ptr %13, align 8
  %159 = load i64, ptr %22, align 8
  %160 = load i64, ptr %11, align 8
  %161 = mul nsw i64 %159, %160
  %162 = getelementptr inbounds i64, ptr %158, i64 %161
  call void @_ZN5faiss15hammings_knn_mcEPKhS1_mmmmPiPl(ptr noundef %143, ptr noundef %145, i64 noundef %146, i64 noundef %148, i64 noundef %149, i64 noundef %152, ptr noundef %157, ptr noundef %162)
  br label %163

163:                                              ; preds = %136, %103
  br label %164

164:                                              ; preds = %163
  %165 = load i64, ptr %21, align 8
  %166 = load i64, ptr %22, align 8
  %167 = add nsw i64 %166, %165
  store i64 %167, ptr %22, align 8
  br label %84, !llvm.loop !5

168:                                              ; preds = %84
  ret void

169:                                              ; preds = %78, %50
  %170 = load ptr, ptr %17, align 8
  %171 = load i32, ptr %18, align 4
  %172 = insertvalue { ptr, i32 } poison, ptr %170, 0
  %173 = insertvalue { ptr, i32 } %172, i32 %171, 1
  resume { ptr, i32 } %173

174:                                              ; preds = %69, %41
  unreachable
}