; Function Attrs: mustprogress uwtable
define void @_ZNK5faiss15IndexBinaryFlat6searchElPKhlPiPlPKNS_16SearchParametersE(ptr nocapture noundef nonnull readonly align 8 dereferenceable(76) %0, i64 noundef %1, ptr noundef %2, i64 noundef %3, ptr noundef %4, ptr noundef %5, ptr noundef readnone %6) unnamed_addr #2 align 2 personality ptr @__gxx_personality_v0 {
  %8 = alloca %"class.std::__cxx11::basic_string", align 8
  %9 = alloca %"class.std::__cxx11::basic_string", align 8
  %10 = alloca %"struct.faiss::HeapArray", align 8
  %.not = icmp eq ptr %6, null
  br i1 %.not, label %26, label %11

11:                                               ; preds = %7
  call void @_ZNSt7__cxx1112basic_stringIcSt11char_traitsIcESaIcEEC1Ev(ptr noundef nonnull align 8 dereferenceable(32) %8) #15
  %12 = call i32 (ptr, i64, ptr, ...) @snprintf(ptr noundef null, i64 noundef 0, ptr noundef nonnull @.str.1, ptr noundef nonnull @.str.2) #15
  %13 = add nsw i32 %12, 1
  %14 = sext i32 %13 to i64
  invoke void @_ZNSt7__cxx1112basic_stringIcSt11char_traitsIcESaIcEE6resizeEm(ptr noundef nonnull align 8 dereferenceable(32) %8, i64 noundef %14)
          to label %15 unwind label %22

15:                                               ; preds = %11
  %16 = invoke noundef nonnull align 1 dereferenceable(1) ptr @_ZNSt7__cxx1112basic_stringIcSt11char_traitsIcESaIcEEixEm(ptr noundef nonnull align 8 dereferenceable(32) %8, i64 noundef 0)
          to label %17 unwind label %22

17:                                               ; preds = %15
  %18 = call noundef i64 @_ZNKSt7__cxx1112basic_stringIcSt11char_traitsIcESaIcEE4sizeEv(ptr noundef nonnull align 8 dereferenceable(32) %8) #15
  %19 = call i32 (ptr, i64, ptr, ...) @snprintf(ptr noundef nonnull %16, i64 noundef %18, ptr noundef nonnull @.str.1, ptr noundef nonnull @.str.2) #15
  %20 = call ptr @__cxa_allocate_exception(i64 40) #15
  invoke void @_ZN5faiss14FaissExceptionC1ERKNSt7__cxx1112basic_stringIcSt11char_traitsIcESaIcEEEPKcSA_i(ptr noundef nonnull align 8 dereferenceable(40) %20, ptr noundef nonnull align 8 dereferenceable(32) %8, ptr noundef nonnull @__PRETTY_FUNCTION__._ZNK5faiss15IndexBinaryFlat6searchElPKhlPiPlPKNS_16SearchParametersE, ptr noundef nonnull @.str.3, i32 noundef 42)
          to label %21 unwind label %24

21:                                               ; preds = %17
  invoke void @__cxa_throw(ptr nonnull %20, ptr nonnull @_ZTIN5faiss14FaissExceptionE, ptr nonnull @_ZN5faiss14FaissExceptionD2Ev) #16
          to label %85 unwind label %22

22:                                               ; preds = %21, %15, %11
  %23 = landingpad { ptr, i32 }
          cleanup
  br label %84

24:                                               ; preds = %17
  %25 = landingpad { ptr, i32 }
          cleanup
  call void @__cxa_free_exception(ptr %20) #15
  br label %84

26:                                               ; preds = %7
  %27 = icmp sgt i64 %3, 0
  br i1 %27, label %43, label %28

28:                                               ; preds = %26
  call void @_ZNSt7__cxx1112basic_stringIcSt11char_traitsIcESaIcEEC1Ev(ptr noundef nonnull align 8 dereferenceable(32) %9) #15
  %29 = call i32 (ptr, i64, ptr, ...) @snprintf(ptr noundef null, i64 noundef 0, ptr noundef nonnull @.str.4, ptr noundef nonnull @.str.5) #15
  %30 = add nsw i32 %29, 1
  %31 = sext i32 %30 to i64
  invoke void @_ZNSt7__cxx1112basic_stringIcSt11char_traitsIcESaIcEE6resizeEm(ptr noundef nonnull align 8 dereferenceable(32) %9, i64 noundef %31)
          to label %32 unwind label %39

32:                                               ; preds = %28
  %33 = invoke noundef nonnull align 1 dereferenceable(1) ptr @_ZNSt7__cxx1112basic_stringIcSt11char_traitsIcESaIcEEixEm(ptr noundef nonnull align 8 dereferenceable(32) %9, i64 noundef 0)
          to label %34 unwind label %39

34:                                               ; preds = %32
  %35 = call noundef i64 @_ZNKSt7__cxx1112basic_stringIcSt11char_traitsIcESaIcEE4sizeEv(ptr noundef nonnull align 8 dereferenceable(32) %9) #15
  %36 = call i32 (ptr, i64, ptr, ...) @snprintf(ptr noundef nonnull %33, i64 noundef %35, ptr noundef nonnull @.str.4, ptr noundef nonnull @.str.5) #15
  %37 = call ptr @__cxa_allocate_exception(i64 40) #15
  invoke void @_ZN5faiss14FaissExceptionC1ERKNSt7__cxx1112basic_stringIcSt11char_traitsIcESaIcEEEPKcSA_i(ptr noundef nonnull align 8 dereferenceable(40) %37, ptr noundef nonnull align 8 dereferenceable(32) %9, ptr noundef nonnull @__PRETTY_FUNCTION__._ZNK5faiss15IndexBinaryFlat6searchElPKhlPiPlPKNS_16SearchParametersE, ptr noundef nonnull @.str.3, i32 noundef 43)
          to label %38 unwind label %41

38:                                               ; preds = %34
  invoke void @__cxa_throw(ptr nonnull %37, ptr nonnull @_ZTIN5faiss14FaissExceptionE, ptr nonnull @_ZN5faiss14FaissExceptionD2Ev) #16
          to label %85 unwind label %39

39:                                               ; preds = %38, %32, %28
  %40 = landingpad { ptr, i32 }
          cleanup
  br label %84

41:                                               ; preds = %34
  %42 = landingpad { ptr, i32 }
          cleanup
  call void @__cxa_free_exception(ptr %37) #15
  br label %84

43:                                               ; preds = %26
  %44 = getelementptr inbounds i8, ptr %0, i64 64
  %45 = load i64, ptr %44, align 8
  %46 = icmp sgt i64 %1, 0
  br i1 %46, label %.lr.ph, label %._crit_edge

.lr.ph:                                           ; preds = %43
  %47 = getelementptr inbounds i8, ptr %0, i64 56
  %48 = getelementptr inbounds i8, ptr %10, i64 8
  %49 = getelementptr inbounds i8, ptr %10, i64 16
  %50 = getelementptr inbounds i8, ptr %10, i64 24
  %51 = getelementptr inbounds i8, ptr %0, i64 12
  %52 = getelementptr inbounds i8, ptr %0, i64 32
  %53 = getelementptr inbounds i8, ptr %0, i64 16
  %54 = getelementptr inbounds i8, ptr %0, i64 72
  br label %55

55:                                               ; preds = %.lr.ph, %82
  %.03648 = phi i64 [ 0, %.lr.ph ], [ %56, %82 ]
  %56 = add nsw i64 %.03648, %45
  %57 = icmp sgt i64 %56, %1
  %58 = sub nsw i64 %1, %.03648
  %spec.select = select i1 %57, i64 %58, i64 %45
  %59 = load i8, ptr %47, align 8
  %60 = and i8 %59, 1
  %.not44 = icmp eq i8 %60, 0
  br i1 %.not44, label %72, label %61

61:                                               ; preds = %55
  store i64 %spec.select, ptr %10, align 8
  store i64 %3, ptr %48, align 8
  %62 = mul nsw i64 %.03648, %3
  %63 = getelementptr inbounds i64, ptr %5, i64 %62
  store ptr %63, ptr %49, align 8
  %64 = getelementptr inbounds i32, ptr %4, i64 %62
  store ptr %64, ptr %50, align 8
  %65 = load i32, ptr %51, align 4
  %66 = sext i32 %65 to i64
  %67 = mul nsw i64 %.03648, %66
  %68 = getelementptr inbounds i8, ptr %2, i64 %67
  %69 = load ptr, ptr %52, align 8
  %70 = load i64, ptr %53, align 8
  %71 = load i32, ptr %54, align 8
  call void @_ZN5faiss15hammings_knn_hcEPNS_9HeapArrayINS_4CMaxIilEEEEPKhS6_mmi17ApproxTopK_mode_t(ptr noundef nonnull %10, ptr noundef %68, ptr noundef %69, i64 noundef %70, i64 noundef %66, i32 noundef 1, i32 noundef %71)
  br label %82

72:                                               ; preds = %55
  %73 = load i32, ptr %51, align 4
  %74 = sext i32 %73 to i64
  %75 = mul nsw i64 %.03648, %74
  %76 = getelementptr inbounds i8, ptr %2, i64 %75
  %77 = load ptr, ptr %52, align 8
  %78 = load i64, ptr %53, align 8
  %79 = mul nsw i64 %.03648, %3
  %80 = getelementptr inbounds i32, ptr %4, i64 %79
  %81 = getelementptr inbounds i64, ptr %5, i64 %79
  call void @_ZN5faiss15hammings_knn_mcEPKhS1_mmmmPiPl(ptr noundef %76, ptr noundef %77, i64 noundef %spec.select, i64 noundef %78, i64 noundef %3, i64 noundef %74, ptr noundef %80, ptr noundef %81)
  br label %82

82:                                               ; preds = %61, %72
  %83 = icmp slt i64 %56, %1
  br i1 %83, label %55, label %._crit_edge, !llvm.loop !5

._crit_edge:                                      ; preds = %82, %43
  ret void

84:                                               ; preds = %39, %41, %22, %24
  %.sink = phi ptr [ %8, %24 ], [ %8, %22 ], [ %9, %41 ], [ %9, %39 ]
  %.pn45.pn = phi { ptr, i32 } [ %25, %24 ], [ %23, %22 ], [ %42, %41 ], [ %40, %39 ]
  call void @_ZNSt7__cxx1112basic_stringIcSt11char_traitsIcESaIcEED1Ev(ptr noundef nonnull align 8 dereferenceable(32) %.sink) #15
  resume { ptr, i32 } %.pn45.pn

85:                                               ; preds = %38, %21
  unreachable
}